target datalayout = "e-m:e-p270:32:32-p271:32:32-p272:64:64-i64:64-i128:128-f80:128-n8:16:32:64-S128"
target triple = "x86_64-pc-linux-gnu"

@.str = private unnamed_addr constant [62 x i8] c"../openssl/providers/implementations/ciphers/cipher_aes_xts.c\00", align 1
@__func__.aes_xts_stream_update = private unnamed_addr constant [22 x i8] c"aes_xts_stream_update\00", align 1

; Function Attrs: nounwind uwtable
define internal i32 @aes_xts_stream_update(ptr noundef %0, ptr noundef %1, ptr noundef %2, i64 noundef %3, ptr noundef %4, i64 noundef %5) #0 {
  %7 = alloca i32, align 4
  %8 = alloca ptr, align 8
  %9 = alloca ptr, align 8
  %10 = alloca ptr, align 8
  %11 = alloca i64, align 8
  %12 = alloca ptr, align 8
  %13 = alloca i64, align 8
  %14 = alloca ptr, align 8
  %15 = alloca i32, align 4
  store ptr %0, ptr %8, align 8, !tbaa !3
  store ptr %1, ptr %9, align 8, !tbaa !7
  store ptr %2, ptr %10, align 8, !tbaa !13
  store i64 %3, ptr %11, align 8, !tbaa !9
  store ptr %4, ptr %12, align 8, !tbaa !7
  store i64 %5, ptr %13, align 8, !tbaa !9
  call void @llvm.lifetime.start.p0(i64 8, ptr %14) #4
  %16 = load ptr, ptr %8, align 8, !tbaa !3
  store ptr %16, ptr %14, align 8, !tbaa !15
  %17 = load i64, ptr %11, align 8, !tbaa !9
  %18 = load i64, ptr %13, align 8, !tbaa !9
  %19 = icmp ult i64 %17, %18
  br i1 %19, label %20, label %21

20:                                               ; preds = %6
  call void @ERR_new()
  call void @ERR_set_debug(ptr noundef @.str, i32 noundef 223, ptr noundef @__func__.aes_xts_stream_update)
  call void (i32, i32, ptr, ...) @ERR_set_error(i32 noundef 57, i32 noundef 106, ptr noundef null)
  store i32 0, ptr %7, align 4
  store i32 1, ptr %15, align 4
  br label %32

21:                                               ; preds = %6
  %22 = load ptr, ptr %14, align 8, !tbaa !15
  %23 = load ptr, ptr %9, align 8, !tbaa !7
  %24 = load ptr, ptr %10, align 8, !tbaa !13
  %25 = load i64, ptr %11, align 8, !tbaa !9
  %26 = load ptr, ptr %12, align 8, !tbaa !7
  %27 = load i64, ptr %13, align 8, !tbaa !9
  %28 = call i32 @aes_xts_cipher(ptr noundef %22, ptr noundef %23, ptr noundef %24, i64 noundef %25, ptr noundef %26, i64 noundef %27)
  %29 = icmp ne i32 %28, 0
  br i1 %29, label %31, label %30

30:                                               ; preds = %21
  call void @ERR_new()
  call void @ERR_set_debug(ptr noundef @.str, i32 noundef 228, ptr noundef @__func__.aes_xts_stream_update)
  call void (i32, i32, ptr, ...) @ERR_set_error(i32 noundef 57, i32 noundef 102, ptr noundef null)
  store i32 0, ptr %7, align 4
  store i32 1, ptr %15, align 4
  br label %32

31:                                               ; preds = %21
  store i32 1, ptr %7, align 4
  store i32 1, ptr %15, align 4
  br label %32

32:                                               ; preds = %31, %30, %20
  call void @llvm.lifetime.end.p0(i64 8, ptr %14) #4
  %33 = load i32, ptr %7, align 4
  ret i32 %33
}